target datalayout = "e-m:e-p270:32:32-p271:32:32-p272:64:64-i64:64-i128:128-f80:128-n8:16:32:64-S128"
target triple = "x86_64-pc-linux-gnu"

%"struct.nanobind::detail::cleanup_list" = type { i32, i32, ptr, [6 x ptr] }

; Function Attrs: mustprogress nounwind uwtable
define void @_ZN8nanobind6detail12cleanup_list6expandEv(ptr noundef nonnull align 8 dereferenceable(64) %0) #4 align 2 {
  %2 = alloca ptr, align 8
  %3 = alloca i32, align 4
  %4 = alloca ptr, align 8
  store ptr %0, ptr %2, align 8
  %5 = load ptr, ptr %2, align 8
  call void @llvm.lifetime.start.p0(i64 4, ptr %3) #20
  %6 = getelementptr inbounds nuw %"struct.nanobind::detail::cleanup_list", ptr %5, i32 0, i32 1
  %7 = load i32, ptr %6, align 4
  %8 = mul i32 %7, 2
  store i32 %8, ptr %3, align 4
  call void @llvm.lifetime.start.p0(i64 8, ptr %4) #20
  %9 = load i32, ptr %3, align 4
  %10 = zext i32 %9 to i64
  %11 = mul i64 %10, 8
  %12 = call noalias ptr @malloc(i64 noundef %11) #23
  store ptr %12, ptr %4, align 8
  %13 = load ptr, ptr %4, align 8
  %14 = icmp ne ptr %13, null
  %15 = xor i1 %14, true
  %16 = zext i1 %15 to i64
  %17 = call i64 @llvm.expect.i64(i64 %16, i64 0)
  %18 = icmp ne i64 %17, 0
  br i1 %18, label %19, label %20

19:                                               ; preds = %1
  call void @_ZN8nanobind6detail16fail_unspecifiedEv() #22
  unreachable

20:                                               ; preds = %1
  %21 = load ptr, ptr %4, align 8
  %22 = getelementptr inbounds nuw %"struct.nanobind::detail::cleanup_list", ptr %5, i32 0, i32 2
  %23 = load ptr, ptr %22, align 8
  %24 = getelementptr inbounds nuw %"struct.nanobind::detail::cleanup_list", ptr %5, i32 0, i32 0
  %25 = load i32, ptr %24, align 8
  %26 = zext i32 %25 to i64
  %27 = mul i64 %26, 8
  call void @llvm.memcpy.p0.p0.i64(ptr align 8 %21, ptr align 8 %23, i64 %27, i1 false)
  %28 = getelementptr inbounds nuw %"struct.nanobind::detail::cleanup_list", ptr %5, i32 0, i32 1
  %29 = load i32, ptr %28, align 4
  %30 = icmp ne i32 %29, 6
  br i1 %30, label %31, label %34

31:                                               ; preds = %20
  %32 = getelementptr inbounds nuw %"struct.nanobind::detail::cleanup_list", ptr %5, i32 0, i32 2
  %33 = load ptr, ptr %32, align 8
  call void @free(ptr noundef %33) #20
  br label %34

34:                                               ; preds = %31, %20
  %35 = load ptr, ptr %4, align 8
  %36 = getelementptr inbounds nuw %"struct.nanobind::detail::cleanup_list", ptr %5, i32 0, i32 2
  store ptr %35, ptr %36, align 8
  %37 = load i32, ptr %3, align 4
  %38 = getelementptr inbounds nuw %"struct.nanobind::detail::cleanup_list", ptr %5, i32 0, i32 1
  store i32 %37, ptr %38, align 4
  call void @llvm.lifetime.end.p0(i64 8, ptr %4) #20
  call void @llvm.lifetime.end.p0(i64 4, ptr %3) #20
  ret void
}