; Function Attrs: mustprogress nounwind uwtable
define void @_ZN8nanobind6detail12cleanup_list6expandEv(ptr noundef nonnull align 8 captures(none) dereferenceable(64) %0) local_unnamed_addr #9 align 2 {
  %2 = getelementptr inbounds nuw i8, ptr %0, i64 4
  %3 = load i32, ptr %2, align 4
  %4 = shl i32 %3, 1
  %5 = zext i32 %4 to i64
  %6 = shl nuw nsw i64 %5, 3
  %7 = tail call noalias ptr @malloc(i64 noundef %6) #32
  %.not = icmp eq ptr %7, null
  br i1 %.not, label %8, label %9, !prof !3

8:                                                ; preds = %1
  tail call void @_ZN8nanobind6detail16fail_unspecifiedEv() #29
  unreachable

9:                                                ; preds = %1
  %10 = getelementptr inbounds nuw i8, ptr %0, i64 8
  %11 = load ptr, ptr %10, align 8
  %12 = load i32, ptr %0, align 8
  %13 = zext i32 %12 to i64
  %14 = shl nuw nsw i64 %13, 3
  tail call void @llvm.memcpy.p0.p0.i64(ptr nonnull align 8 %7, ptr align 8 %11, i64 %14, i1 false)
  %.not5 = icmp eq i32 %3, 6
  br i1 %.not5, label %16, label %15

15:                                               ; preds = %9
  tail call void @free(ptr noundef %11) #27
  br label %16

16:                                               ; preds = %15, %9
  store ptr %7, ptr %10, align 8
  store i32 %4, ptr %2, align 4
  ret void
}